	.section	__TEXT,__text,regular,pure_instructions
	.build_version macos, 10, 15	sdk_version 10, 15
	.globl	_main                   ## -- Begin function main
	.p2align	4, 0x90
_main:                                  ## @main
	.cfi_startproc
## %bb.0:
	pushq	%rbp
	.cfi_def_cfa_offset 16
	.cfi_offset %rbp, -16
	movq	%rsp, %rbp
	.cfi_def_cfa_register %rbp
	xorl	%eax, %eax
	movl	$0, -4(%rbp)
	movl	%edi, -8(%rbp)
	movq	%rsi, -16(%rbp)
	popq	%rbp
	retq
	.cfi_endproc
                                        ## -- End function
	.globl	__start                 ## -- Begin function _start
	.p2align	4, 0x90
__start:                                ## @_start
	.cfi_startproc
## %bb.0:
	pushq	%rbp
	.cfi_def_cfa_offset 16
	.cfi_offset %rbp, -16
	movq	%rsp, %rbp
	.cfi_def_cfa_register %rbp
	subq	$16, %rsp
	xorl	%eax, %eax
	xorl	%ecx, %ecx
	movl	%ecx, %esi
	movl	%edi, -4(%rbp)
	movl	%eax, %edi
	callq	_main
	## InlineAsm Start
	movq	$536870913, %rax        ## imm = 0x20000001
	movq	$0, %rdi
	sysenter
	## InlineAsm End
	movl	%eax, -8(%rbp)          ## 4-byte Spill
	addq	$16, %rsp
	popq	%rbp
	retq
	.cfi_endproc
                                        ## -- End function

.subsections_via_symbols
